target datalayout = "e-m:e-p270:32:32-p271:32:32-p272:64:64-i64:64-i128:128-f80:128-n8:16:32:64-S128"
target triple = "x86_64-pc-linux-gnu"

%struct.ident_t = type { i32, i32, i32, i32, ptr }
%"class.open3d::core::Indexer" = type <{ i64, i64, [5 x %"struct.open3d::core::TensorRef"], [2 x %"struct.open3d::core::TensorRef"], [5 x i8], [2 x i8], i8, [5 x i64], [5 x i64], i64, i8, i8, [6 x i8] }>
%"struct.open3d::core::TensorRef" = type { ptr, i64, i64, [5 x i64], [5 x i64] }
%"struct.std::_Vector_base.205" = type { %"struct.std::_Vector_base<long, std::allocator<long>>::_Vector_impl" }
%"struct.std::_Vector_base<long, std::allocator<long>>::_Vector_impl" = type { %"struct.std::_Vector_base<long, std::allocator<long>>::_Vector_impl_data" }
%"struct.std::_Vector_base<long, std::allocator<long>>::_Vector_impl_data" = type { ptr, ptr, ptr }

@1 = private unnamed_addr constant %struct.ident_t { i32 0, i32 514, i32 0, i32 22, ptr @0 }, align 8

; Function Attrs: mustprogress nounwind ssp uwtable
define linkonce_odr hidden noundef ptr @_ZNK6open3d4core7Indexer18GetWorkloadDataPtrERKNS0_9TensorRefEbl(ptr noundef nonnull align 8 dereferenceable(842) %0, ptr noundef nonnull align 8 dereferenceable(104) %1, i1 noundef zeroext %2, i64 noundef %3) #4 comdat align 2 {
  %5 = alloca ptr, align 8
  %6 = alloca ptr, align 8
  %7 = alloca ptr, align 8
  %8 = alloca i8, align 1
  %9 = alloca i64, align 8
  %10 = alloca i64, align 8
  %11 = alloca i64, align 8
  store ptr %0, ptr %6, align 8, !tbaa !138
  store ptr %1, ptr %7, align 8, !tbaa !1324
  %12 = zext i1 %2 to i8
  store i8 %12, ptr %8, align 1, !tbaa !82
  store i64 %3, ptr %9, align 8, !tbaa !17
  %13 = load ptr, ptr %6, align 8
  %14 = load i64, ptr %9, align 8, !tbaa !17
  %15 = icmp slt i64 %14, 0
  br i1 %15, label %16, label %17

16:                                               ; preds = %4
  store ptr null, ptr %5, align 8
  br label %67

17:                                               ; preds = %4
  %18 = load i8, ptr %8, align 1, !tbaa !82, !range !100, !noundef !101
  %19 = trunc i8 %18 to i1
  br i1 %19, label %20, label %30

20:                                               ; preds = %17
  %21 = load ptr, ptr %7, align 8, !tbaa !1324
  %22 = getelementptr inbounds nuw %"struct.open3d::core::TensorRef", ptr %21, i32 0, i32 0
  %23 = load ptr, ptr %22, align 8, !tbaa !1326
  %24 = load i64, ptr %9, align 8, !tbaa !17
  %25 = load ptr, ptr %7, align 8, !tbaa !1324
  %26 = getelementptr inbounds nuw %"struct.open3d::core::TensorRef", ptr %25, i32 0, i32 2
  %27 = load i64, ptr %26, align 8, !tbaa !1328
  %28 = mul nsw i64 %24, %27
  %29 = getelementptr inbounds i8, ptr %23, i64 %28
  store ptr %29, ptr %5, align 8
  br label %67

30:                                               ; preds = %17
  call void @llvm.lifetime.start.p0(i64 8, ptr %10) #6
  store i64 0, ptr %10, align 8, !tbaa !17
  call void @llvm.lifetime.start.p0(i64 8, ptr %11) #6
  store i64 0, ptr %11, align 8, !tbaa !17
  br label %31

31:                                               ; preds = %58, %30
  %32 = load i64, ptr %11, align 8, !tbaa !17
  %33 = getelementptr inbounds nuw %"class.open3d::core::Indexer", ptr %13, i32 0, i32 9
  %34 = load i64, ptr %33, align 8, !tbaa !1329
  %35 = icmp slt i64 %32, %34
  br i1 %35, label %37, label %36

36:                                               ; preds = %31
  call void @llvm.lifetime.end.p0(i64 8, ptr %11) #6
  br label %61

37:                                               ; preds = %31
  %38 = load i64, ptr %9, align 8, !tbaa !17
  %39 = getelementptr inbounds nuw %"class.open3d::core::Indexer", ptr %13, i32 0, i32 8
  %40 = load i64, ptr %11, align 8, !tbaa !17
  %41 = getelementptr inbounds [5 x i64], ptr %39, i64 0, i64 %40
  %42 = load i64, ptr %41, align 8, !tbaa !17
  %43 = sdiv i64 %38, %42
  %44 = load ptr, ptr %7, align 8, !tbaa !1324
  %45 = getelementptr inbounds nuw %"struct.open3d::core::TensorRef", ptr %44, i32 0, i32 4
  %46 = load i64, ptr %11, align 8, !tbaa !17
  %47 = getelementptr inbounds [5 x i64], ptr %45, i64 0, i64 %46
  %48 = load i64, ptr %47, align 8, !tbaa !17
  %49 = mul nsw i64 %43, %48
  %50 = load i64, ptr %10, align 8, !tbaa !17
  %51 = add nsw i64 %50, %49
  store i64 %51, ptr %10, align 8, !tbaa !17
  %52 = load i64, ptr %9, align 8, !tbaa !17
  %53 = getelementptr inbounds nuw %"class.open3d::core::Indexer", ptr %13, i32 0, i32 8
  %54 = load i64, ptr %11, align 8, !tbaa !17
  %55 = getelementptr inbounds [5 x i64], ptr %53, i64 0, i64 %54
  %56 = load i64, ptr %55, align 8, !tbaa !17
  %57 = srem i64 %52, %56
  store i64 %57, ptr %9, align 8, !tbaa !17
  br label %58

58:                                               ; preds = %37
  %59 = load i64, ptr %11, align 8, !tbaa !17
  %60 = add nsw i64 %59, 1
  store i64 %60, ptr %11, align 8, !tbaa !17
  br label %31, !llvm.loop !1330

61:                                               ; preds = %36
  %62 = load ptr, ptr %7, align 8, !tbaa !1324
  %63 = getelementptr inbounds nuw %"struct.open3d::core::TensorRef", ptr %62, i32 0, i32 0
  %64 = load ptr, ptr %63, align 8, !tbaa !1326
  %65 = load i64, ptr %10, align 8, !tbaa !17
  %66 = getelementptr inbounds i8, ptr %64, i64 %65
  store ptr %66, ptr %5, align 8
  call void @llvm.lifetime.end.p0(i64 8, ptr %10) #6
  br label %67

67:                                               ; preds = %61, %20, %16
  %68 = load ptr, ptr %5, align 8
  ret ptr %68
}

; Function Attrs: mustprogress nounwind ssp uwtable
define linkonce_odr noundef nonnull align 8 dereferenceable(8) ptr @_ZNSt6vectorIlSaIlEEixEm(ptr noundef nonnull align 8 dereferenceable(24) %0, i64 noundef %1) #4 comdat align 2 {
  %3 = alloca ptr, align 8
  %4 = alloca i64, align 8
  store ptr %0, ptr %3, align 8, !tbaa !1252
  store i64 %1, ptr %4, align 8, !tbaa !17
  %5 = load ptr, ptr %3, align 8
  %6 = getelementptr inbounds nuw %"struct.std::_Vector_base.205", ptr %5, i32 0, i32 0
  %7 = getelementptr inbounds nuw %"struct.std::_Vector_base<long, std::allocator<long>>::_Vector_impl_data", ptr %6, i32 0, i32 0
  %8 = load ptr, ptr %7, align 8, !tbaa !1254
  %9 = load i64, ptr %4, align 8, !tbaa !17
  %10 = getelementptr inbounds nuw i64, ptr %8, i64 %9
  ret ptr %10
}

; Function Attrs: mustprogress ssp uwtable
define linkonce_odr hidden noundef ptr @_ZNK6open3d4core7Indexer11GetInputPtrEll(ptr noundef nonnull align 8 dereferenceable(842) %0, i64 noundef %1, i64 noundef %2) #3 comdat align 2 {
  %4 = alloca ptr, align 8
  %5 = alloca ptr, align 8
  %6 = alloca i64, align 8
  %7 = alloca i64, align 8
  store ptr %0, ptr %5, align 8, !tbaa !138
  store i64 %1, ptr %6, align 8, !tbaa !17
  store i64 %2, ptr %7, align 8, !tbaa !17
  %8 = load ptr, ptr %5, align 8
  %9 = load i64, ptr %6, align 8, !tbaa !17
  %10 = icmp slt i64 %9, 0
  br i1 %10, label %16, label %11

11:                                               ; preds = %3
  %12 = load i64, ptr %6, align 8, !tbaa !17
  %13 = getelementptr inbounds nuw %"class.open3d::core::Indexer", ptr %8, i32 0, i32 0
  %14 = load i64, ptr %13, align 8, !tbaa !1322
  %15 = icmp sge i64 %12, %14
  br i1 %15, label %16, label %17

16:                                               ; preds = %11, %3
  store ptr null, ptr %4, align 8
  br label %28

17:                                               ; preds = %11
  %18 = getelementptr inbounds nuw %"class.open3d::core::Indexer", ptr %8, i32 0, i32 2
  %19 = load i64, ptr %6, align 8, !tbaa !17
  %20 = getelementptr inbounds [5 x %"struct.open3d::core::TensorRef"], ptr %18, i64 0, i64 %19
  %21 = getelementptr inbounds nuw %"class.open3d::core::Indexer", ptr %8, i32 0, i32 4
  %22 = load i64, ptr %6, align 8, !tbaa !17
  %23 = getelementptr inbounds [5 x i8], ptr %21, i64 0, i64 %22
  %24 = load i8, ptr %23, align 1, !tbaa !82, !range !100, !noundef !101
  %25 = trunc i8 %24 to i1
  %26 = load i64, ptr %7, align 8, !tbaa !17
  %27 = call noundef ptr @_ZNK6open3d4core7Indexer18GetWorkloadDataPtrERKNS0_9TensorRefEbl(ptr noundef nonnull align 8 dereferenceable(842) %8, ptr noundef nonnull align 8 dereferenceable(104) %20, i1 noundef zeroext %25, i64 noundef %26)
  store ptr %27, ptr %4, align 8
  br label %28

28:                                               ; preds = %17, %16
  %29 = load ptr, ptr %4, align 8
  ret ptr %29
}

; Function Attrs: inlinehint mustprogress nounwind ssp uwtable
define linkonce_odr noundef nonnull align 8 dereferenceable(8) ptr @_ZSt3minIlERKT_S2_S2_(ptr noundef nonnull align 8 dereferenceable(8) %0, ptr noundef nonnull align 8 dereferenceable(8) %1) #5 comdat {
  %3 = alloca ptr, align 8
  %4 = alloca ptr, align 8
  %5 = alloca ptr, align 8
  store ptr %0, ptr %4, align 8, !tbaa !108
  store ptr %1, ptr %5, align 8, !tbaa !108
  %6 = load ptr, ptr %5, align 8, !tbaa !108
  %7 = load i64, ptr %6, align 8, !tbaa !17
  %8 = load ptr, ptr %4, align 8, !tbaa !108
  %9 = load i64, ptr %8, align 8, !tbaa !17
  %10 = icmp slt i64 %7, %9
  br i1 %10, label %11, label %13

11:                                               ; preds = %2
  %12 = load ptr, ptr %5, align 8, !tbaa !108
  store ptr %12, ptr %3, align 8
  br label %15

13:                                               ; preds = %2
  %14 = load ptr, ptr %4, align 8, !tbaa !108
  store ptr %14, ptr %3, align 8
  br label %15

15:                                               ; preds = %13, %11
  %16 = load ptr, ptr %3, align 8
  ret ptr %16
}

; Function Attrs: alwaysinline norecurse nounwind ssp uwtable
define internal void @_ZN6open3d4core6kernel18CPUReductionEngine28LaunchReductionKernelTwoPassIlPFlllEEEvRKNS0_7IndexerET0_T_.omp_outlined(ptr noalias noundef %0, ptr noalias noundef %1, ptr noundef nonnull align 8 dereferenceable(8) %2, ptr noundef nonnull align 8 dereferenceable(8) %3, ptr noundef nonnull align 8 dereferenceable(8) %4, ptr noundef nonnull align 8 dereferenceable(8) %5, ptr noundef nonnull align 8 dereferenceable(842) %6, ptr noundef nonnull align 8 dereferenceable(8) %7, ptr noundef nonnull align 8 dereferenceable(24) %8) #28 personality ptr @__gxx_personality_v0 {
  %10 = alloca ptr, align 8
  %11 = alloca ptr, align 8
  %12 = alloca ptr, align 8
  %13 = alloca ptr, align 8
  %14 = alloca ptr, align 8
  %15 = alloca ptr, align 8
  %16 = alloca ptr, align 8
  %17 = alloca ptr, align 8
  %18 = alloca ptr, align 8
  %19 = alloca ptr, align 8
  %20 = alloca i64, align 8
  %21 = alloca i64, align 8
  %22 = alloca i64, align 8
  %23 = alloca i64, align 8
  %24 = alloca i64, align 8
  %25 = alloca i64, align 8
  %26 = alloca i64, align 8
  %27 = alloca i32, align 4
  %28 = alloca i64, align 8
  %29 = alloca i64, align 8
  %30 = alloca i64, align 8
  %31 = alloca i64, align 8
  %32 = alloca i64, align 8
  %33 = alloca i64, align 8
  %34 = alloca ptr, align 8
  store ptr %0, ptr %10, align 8, !tbaa !211
  store ptr %1, ptr %11, align 8, !tbaa !211
  store ptr %2, ptr %12, align 8, !tbaa !108
  store ptr %3, ptr %13, align 8, !tbaa !108
  store ptr %4, ptr %14, align 8, !tbaa !108
  store ptr %5, ptr %15, align 8, !tbaa !108
  store ptr %6, ptr %16, align 8, !tbaa !138
  store ptr %7, ptr %17, align 8, !tbaa !899
  store ptr %8, ptr %18, align 8, !tbaa !1252
  %35 = load ptr, ptr %12, align 8, !tbaa !108
  %36 = load ptr, ptr %13, align 8, !tbaa !108
  %37 = load ptr, ptr %14, align 8, !tbaa !108
  %38 = load ptr, ptr %15, align 8, !tbaa !108
  %39 = load ptr, ptr %16, align 8, !tbaa !138
  %40 = load ptr, ptr %17, align 8, !tbaa !899
  %41 = load ptr, ptr %18, align 8, !tbaa !1252
  store ptr %39, ptr %19, align 8
  call void @llvm.lifetime.start.p0(i64 8, ptr %20) #6
  call void @llvm.lifetime.start.p0(i64 8, ptr %21) #6
  %42 = load i64, ptr %35, align 8, !tbaa !17
  store i64 %42, ptr %21, align 8, !tbaa !17
  call void @llvm.lifetime.start.p0(i64 8, ptr %22) #6
  %43 = load i64, ptr %21, align 8, !tbaa !17
  %44 = sub nsw i64 %43, 0
  %45 = sdiv i64 %44, 1
  %46 = sub nsw i64 %45, 1
  store i64 %46, ptr %22, align 8, !tbaa !17
  call void @llvm.lifetime.start.p0(i64 8, ptr %23) #6
  store i64 0, ptr %23, align 8, !tbaa !17
  call void @llvm.lifetime.end.p0(i64 8, ptr %23) #6
  %47 = load i64, ptr %21, align 8, !tbaa !17
  %48 = icmp slt i64 0, %47
  br i1 %48, label %49, label %113

49:                                               ; preds = %9
  call void @llvm.lifetime.start.p0(i64 8, ptr %24) #6
  store i64 0, ptr %24, align 8, !tbaa !17
  call void @llvm.lifetime.start.p0(i64 8, ptr %25) #6
  %50 = load i64, ptr %22, align 8, !tbaa !17
  store i64 %50, ptr %25, align 8, !tbaa !17
  call void @llvm.lifetime.start.p0(i64 8, ptr %26) #6
  store i64 1, ptr %26, align 8, !tbaa !17
  call void @llvm.lifetime.start.p0(i64 4, ptr %27) #6
  store i32 0, ptr %27, align 4, !tbaa !166
  call void @llvm.lifetime.start.p0(i64 8, ptr %28) #6
  %51 = load ptr, ptr %10, align 8
  %52 = load i32, ptr %51, align 4, !tbaa !166
  call void @__kmpc_for_static_init_8(ptr @1, i32 %52, i32 34, ptr %27, ptr %24, ptr %25, ptr %26, i64 1, i64 1)
  %53 = load i64, ptr %25, align 8, !tbaa !17
  %54 = load i64, ptr %22, align 8, !tbaa !17
  %55 = icmp sgt i64 %53, %54
  br i1 %55, label %56, label %58

56:                                               ; preds = %49
  %57 = load i64, ptr %22, align 8, !tbaa !17
  br label %60

58:                                               ; preds = %49
  %59 = load i64, ptr %25, align 8, !tbaa !17
  br label %60

60:                                               ; preds = %58, %56
  %61 = phi i64 [ %57, %56 ], [ %59, %58 ]
  store i64 %61, ptr %25, align 8, !tbaa !17
  %62 = load i64, ptr %24, align 8, !tbaa !17
  store i64 %62, ptr %20, align 8, !tbaa !17
  br label %63

63:                                               ; preds = %106, %60
  %64 = load i64, ptr %20, align 8, !tbaa !17
  %65 = load i64, ptr %25, align 8, !tbaa !17
  %66 = icmp sle i64 %64, %65
  br i1 %66, label %68, label %67

67:                                               ; preds = %63
  br label %109

68:                                               ; preds = %63
  %69 = load i64, ptr %20, align 8, !tbaa !17
  %70 = mul nsw i64 %69, 1
  %71 = add nsw i64 0, %70
  store i64 %71, ptr %28, align 8, !tbaa !17
  call void @llvm.lifetime.start.p0(i64 8, ptr %29) #6
  %72 = load i64, ptr %28, align 8, !tbaa !17
  %73 = load i64, ptr %36, align 8, !tbaa !17
  %74 = mul nsw i64 %72, %73
  store i64 %74, ptr %29, align 8, !tbaa !17
  call void @llvm.lifetime.start.p0(i64 8, ptr %30) #6
  call void @llvm.lifetime.start.p0(i64 8, ptr %31) #6
  %75 = load i64, ptr %29, align 8, !tbaa !17
  %76 = load i64, ptr %36, align 8, !tbaa !17
  %77 = add nsw i64 %75, %76
  store i64 %77, ptr %31, align 8, !tbaa !17
  %78 = call noundef nonnull align 8 dereferenceable(8) ptr @_ZSt3minIlERKT_S2_S2_(ptr noundef nonnull align 8 dereferenceable(8) %31, ptr noundef nonnull align 8 dereferenceable(8) %37)
  %79 = load i64, ptr %78, align 8, !tbaa !17
  call void @llvm.lifetime.end.p0(i64 8, ptr %31) #6
  store i64 %79, ptr %30, align 8, !tbaa !17
  call void @llvm.lifetime.start.p0(i64 8, ptr %32) #6
  %80 = load i64, ptr %38, align 8, !tbaa !17
  store i64 %80, ptr %32, align 8, !tbaa !17
  call void @llvm.lifetime.start.p0(i64 8, ptr %33) #6
  %81 = load i64, ptr %29, align 8, !tbaa !17
  store i64 %81, ptr %33, align 8, !tbaa !17
  br label %82

82:                                               ; preds = %98, %68
  %83 = load i64, ptr %33, align 8, !tbaa !17
  %84 = load i64, ptr %30, align 8, !tbaa !17
  %85 = icmp slt i64 %83, %84
  br i1 %85, label %87, label %86

86:                                               ; preds = %82
  call void @llvm.lifetime.end.p0(i64 8, ptr %33) #6
  br label %101

87:                                               ; preds = %82
  call void @llvm.lifetime.start.p0(i64 8, ptr %34) #6
  %88 = load ptr, ptr %19, align 8, !tbaa !138
  %89 = load i64, ptr %33, align 8, !tbaa !17
  %90 = invoke noundef ptr @_ZNK6open3d4core7Indexer11GetInputPtrEll(ptr noundef nonnull align 8 dereferenceable(842) %88, i64 noundef 0, i64 noundef %89)
          to label %91 unwind label %114

91:                                               ; preds = %87
  store ptr %90, ptr %34, align 8, !tbaa !108
  %92 = load ptr, ptr %40, align 8, !tbaa !23
  %93 = load ptr, ptr %34, align 8, !tbaa !108
  %94 = load i64, ptr %93, align 8, !tbaa !17
  %95 = load i64, ptr %32, align 8, !tbaa !17
  %96 = invoke noundef i64 %92(i64 noundef %94, i64 noundef %95)
          to label %97 unwind label %114

97:                                               ; preds = %91
  store i64 %96, ptr %32, align 8, !tbaa !17
  call void @llvm.lifetime.end.p0(i64 8, ptr %34) #6
  br label %98

98:                                               ; preds = %97
  %99 = load i64, ptr %33, align 8, !tbaa !17
  %100 = add nsw i64 %99, 1
  store i64 %100, ptr %33, align 8, !tbaa !17
  br label %82, !llvm.loop !1557

101:                                              ; preds = %86
  %102 = load i64, ptr %32, align 8, !tbaa !17
  %103 = load i64, ptr %28, align 8, !tbaa !17
  %104 = call noundef nonnull align 8 dereferenceable(8) ptr @_ZNSt6vectorIlSaIlEEixEm(ptr noundef nonnull align 8 dereferenceable(24) %41, i64 noundef %103) #6
  store i64 %102, ptr %104, align 8, !tbaa !17
  call void @llvm.lifetime.end.p0(i64 8, ptr %32) #6
  call void @llvm.lifetime.end.p0(i64 8, ptr %30) #6
  call void @llvm.lifetime.end.p0(i64 8, ptr %29) #6
  br label %105

105:                                              ; preds = %101
  br label %106

106:                                              ; preds = %105
  %107 = load i64, ptr %20, align 8, !tbaa !17
  %108 = add nsw i64 %107, 1
  store i64 %108, ptr %20, align 8, !tbaa !17
  br label %63

109:                                              ; preds = %67
  br label %110

110:                                              ; preds = %109
  %111 = load ptr, ptr %10, align 8
  %112 = load i32, ptr %111, align 4, !tbaa !166
  call void @__kmpc_for_static_fini(ptr @1, i32 %112)
  call void @llvm.lifetime.end.p0(i64 8, ptr %28) #6
  call void @llvm.lifetime.end.p0(i64 4, ptr %27) #6
  call void @llvm.lifetime.end.p0(i64 8, ptr %26) #6
  call void @llvm.lifetime.end.p0(i64 8, ptr %25) #6
  call void @llvm.lifetime.end.p0(i64 8, ptr %24) #6
  br label %113

113:                                              ; preds = %110, %9
  call void @llvm.lifetime.end.p0(i64 8, ptr %22) #6
  call void @llvm.lifetime.end.p0(i64 8, ptr %21) #6
  call void @llvm.lifetime.end.p0(i64 8, ptr %20) #6
  ret void

114:                                              ; preds = %91, %87
  %115 = landingpad { ptr, i32 }
          catch ptr null
  %116 = extractvalue { ptr, i32 } %115, 0
  call void @__clang_call_terminate(ptr %116) #31
  unreachable
}